; Function Attrs: nounwind uwtable
define zeroext range(i8 0, 2) i8 @l_Lean_beqExternAttrData____x40_Lean_Compiler_ExternAttr___hyg_382_(ptr noundef readonly captures(none) %0, ptr noundef readonly captures(none) %1) local_unnamed_addr #0 {
  %3 = getelementptr inbounds nuw i8, ptr %0, i64 8
  %4 = load ptr, ptr %3, align 8, !tbaa !4
  %5 = getelementptr inbounds nuw i8, ptr %0, i64 16
  %6 = load ptr, ptr %5, align 8, !tbaa !4
  %7 = getelementptr inbounds nuw i8, ptr %1, i64 8
  %8 = load ptr, ptr %7, align 8, !tbaa !4
  %9 = getelementptr inbounds nuw i8, ptr %1, i64 16
  %10 = load ptr, ptr %9, align 8, !tbaa !4
  %11 = tail call zeroext i8 @l_Option_beqOption____x40_Init_Data_Option_Basic___hyg_160____at_Lean_Meta_beqInfoCacheKey____x40_Lean_Meta_Basic___hyg_1324____spec__1(ptr noundef %4, ptr noundef %8) #6
  %12 = icmp eq i8 %11, 0
  br i1 %12, label %l_List_beq___at_Lean_beqExternAttrData____x40_Lean_Compiler_ExternAttr___hyg_382____spec__1.exit, label %.preheader

.preheader:                                       ; preds = %2, %40
  %.020.i = phi ptr [ %48, %40 ], [ %10, %2 ]
  %.018.i = phi ptr [ %44, %40 ], [ %6, %2 ]
  %13 = ptrtoint ptr %.018.i to i64
  %14 = and i64 %13, 1
  %.not.i.i = icmp eq i64 %14, 0
  br i1 %.not.i.i, label %18, label %15

15:                                               ; preds = %.preheader
  %16 = lshr i64 %13, 1
  %17 = trunc i64 %16 to i32
  br label %lean_obj_tag.exit.i

18:                                               ; preds = %.preheader
  %19 = getelementptr i8, ptr %.018.i, i64 4
  %.val.i.i = load i32, ptr %19, align 4
  %20 = lshr i32 %.val.i.i, 24
  br label %lean_obj_tag.exit.i

lean_obj_tag.exit.i:                              ; preds = %18, %15
  %.0.i.i = phi i32 [ %17, %15 ], [ %20, %18 ]
  %21 = icmp eq i32 %.0.i.i, 0
  %22 = ptrtoint ptr %.020.i to i64
  %23 = and i64 %22, 1
  %.not.i23.i = icmp eq i64 %23, 0
  br i1 %21, label %24, label %32

24:                                               ; preds = %lean_obj_tag.exit.i
  br i1 %.not.i23.i, label %28, label %25

25:                                               ; preds = %24
  %26 = lshr i64 %22, 1
  %27 = trunc i64 %26 to i32
  br label %lean_obj_tag.exit26.i

28:                                               ; preds = %24
  %29 = getelementptr i8, ptr %.020.i, i64 4
  %.val.i25.i = load i32, ptr %29, align 4
  %30 = lshr i32 %.val.i25.i, 24
  br label %lean_obj_tag.exit26.i

lean_obj_tag.exit26.i:                            ; preds = %28, %25
  %.0.i24.i = phi i32 [ %27, %25 ], [ %30, %28 ]
  %31 = icmp eq i32 %.0.i24.i, 0
  %..i = zext i1 %31 to i8
  br label %l_List_beq___at_Lean_beqExternAttrData____x40_Lean_Compiler_ExternAttr___hyg_382____spec__1.exit

32:                                               ; preds = %lean_obj_tag.exit.i
  br i1 %.not.i23.i, label %36, label %33

33:                                               ; preds = %32
  %34 = lshr i64 %22, 1
  %35 = trunc i64 %34 to i32
  br label %lean_obj_tag.exit30.i

36:                                               ; preds = %32
  %37 = getelementptr i8, ptr %.020.i, i64 4
  %.val.i29.i = load i32, ptr %37, align 4
  %38 = lshr i32 %.val.i29.i, 24
  br label %lean_obj_tag.exit30.i

lean_obj_tag.exit30.i:                            ; preds = %36, %33
  %.0.i28.i = phi i32 [ %35, %33 ], [ %38, %36 ]
  %39 = icmp eq i32 %.0.i28.i, 0
  br i1 %39, label %l_List_beq___at_Lean_beqExternAttrData____x40_Lean_Compiler_ExternAttr___hyg_382____spec__1.exit, label %40

40:                                               ; preds = %lean_obj_tag.exit30.i
  %41 = getelementptr inbounds nuw i8, ptr %.018.i, i64 8
  %42 = load ptr, ptr %41, align 8, !tbaa !4
  %43 = getelementptr inbounds nuw i8, ptr %.018.i, i64 16
  %44 = load ptr, ptr %43, align 8, !tbaa !4
  %45 = getelementptr inbounds nuw i8, ptr %.020.i, i64 8
  %46 = load ptr, ptr %45, align 8, !tbaa !4
  %47 = getelementptr inbounds nuw i8, ptr %.020.i, i64 16
  %48 = load ptr, ptr %47, align 8, !tbaa !4
  %49 = tail call zeroext i8 @l_Lean_beqExternEntry____x40_Lean_Compiler_ExternAttr___hyg_66_(ptr noundef %42, ptr noundef %46)
  %50 = icmp eq i8 %49, 0
  br i1 %50, label %l_List_beq___at_Lean_beqExternAttrData____x40_Lean_Compiler_ExternAttr___hyg_382____spec__1.exit, label %.preheader

l_List_beq___at_Lean_beqExternAttrData____x40_Lean_Compiler_ExternAttr___hyg_382____spec__1.exit: ; preds = %40, %lean_obj_tag.exit30.i, %lean_obj_tag.exit26.i, %2
  %.0 = phi i8 [ 0, %2 ], [ %..i, %lean_obj_tag.exit26.i ], [ 0, %lean_obj_tag.exit30.i ], [ 0, %40 ]
  ret i8 %.0
}